target datalayout = "e-m:e-p270:32:32-p271:32:32-p272:64:64-i64:64-i128:128-f80:128-n8:16:32:64-S128"
target triple = "x86_64-pc-linux-gnu"

%struct.instr_time = type { i64 }
%struct.WritebackContext = type { ptr, i32, [256 x %struct.PendingWriteback] }
%struct.PendingWriteback = type { %struct.buftag }
%struct.buftag = type { i32, i32, i32, i32, i32 }
%struct.RelFileLocator = type { i32, i32, i32 }

@track_io_timing = dso_local global i8 0, align 1

; Function Attrs: inlinehint nounwind uwtable
define internal i32 @BufTagGetRelNumber(ptr noundef %0) #3 {
  %2 = alloca ptr, align 8
  store ptr %0, ptr %2, align 8
  %3 = load ptr, ptr %2, align 8
  %4 = getelementptr inbounds nuw %struct.buftag, ptr %3, i32 0, i32 2
  %5 = load i32, ptr %4, align 4
  ret i32 %5
}

; Function Attrs: inlinehint nounwind uwtable
define internal i32 @BufTagGetForkNum(ptr noundef %0) #3 {
  %2 = alloca ptr, align 8
  store ptr %0, ptr %2, align 8
  %3 = load ptr, ptr %2, align 8
  %4 = getelementptr inbounds nuw %struct.buftag, ptr %3, i32 0, i32 3
  %5 = load i32, ptr %4, align 4
  ret i32 %5
}

; Function Attrs: inlinehint nounwind uwtable
define internal { i64, i32 } @BufTagGetRelFileLocator(ptr noundef %0) #3 {
  %2 = alloca %struct.RelFileLocator, align 4
  %3 = alloca ptr, align 8
  %4 = alloca { i64, i32 }, align 8
  store ptr %0, ptr %3, align 8
  %5 = load ptr, ptr %3, align 8
  %6 = getelementptr inbounds nuw %struct.buftag, ptr %5, i32 0, i32 0
  %7 = load i32, ptr %6, align 4
  %8 = getelementptr inbounds nuw %struct.RelFileLocator, ptr %2, i32 0, i32 0
  store i32 %7, ptr %8, align 4
  %9 = load ptr, ptr %3, align 8
  %10 = getelementptr inbounds nuw %struct.buftag, ptr %9, i32 0, i32 1
  %11 = load i32, ptr %10, align 4
  %12 = getelementptr inbounds nuw %struct.RelFileLocator, ptr %2, i32 0, i32 1
  store i32 %11, ptr %12, align 4
  %13 = load ptr, ptr %3, align 8
  %14 = call i32 @BufTagGetRelNumber(ptr noundef %13)
  %15 = getelementptr inbounds nuw %struct.RelFileLocator, ptr %2, i32 0, i32 2
  store i32 %14, ptr %15, align 4
  call void @llvm.memcpy.p0.p0.i64(ptr align 8 %4, ptr align 4 %2, i64 12, i1 false)
  %16 = load { i64, i32 }, ptr %4, align 8
  ret { i64, i32 } %16
}

; Function Attrs: nounwind uwtable
define dso_local void @IssuePendingWritebacks(ptr noundef %0, i32 noundef %1) #0 {
  %3 = alloca ptr, align 8
  %4 = alloca i32, align 4
  %5 = alloca %struct.instr_time, align 8
  %6 = alloca i32, align 4
  %7 = alloca i32, align 4
  %8 = alloca %struct.instr_time, align 8
  %9 = alloca ptr, align 8
  %10 = alloca ptr, align 8
  %11 = alloca ptr, align 8
  %12 = alloca i32, align 4
  %13 = alloca %struct.buftag, align 4
  %14 = alloca %struct.RelFileLocator, align 4
  %15 = alloca i64, align 8
  %16 = alloca %struct.RelFileLocator, align 4
  %17 = alloca { i64, i32 }, align 8
  %18 = alloca %struct.RelFileLocator, align 4
  %19 = alloca { i64, i32 }, align 8
  %20 = alloca %struct.RelFileLocator, align 4
  %21 = alloca { i64, i32 }, align 8
  %22 = alloca %struct.RelFileLocator, align 4
  %23 = alloca { i64, i32 }, align 8
  %24 = alloca { i64, i32 }, align 4
  store ptr %0, ptr %3, align 8
  store i32 %1, ptr %4, align 4
  call void @llvm.lifetime.start.p0(i64 8, ptr %5) #10
  call void @llvm.lifetime.start.p0(i64 4, ptr %6) #10
  %25 = load ptr, ptr %3, align 8
  %26 = getelementptr inbounds nuw %struct.WritebackContext, ptr %25, i32 0, i32 1
  %27 = load i32, ptr %26, align 8
  %28 = icmp eq i32 %27, 0
  br i1 %28, label %29, label %30

29:                                               ; preds = %2
  store i32 1, ptr %7, align 4
  br label %167

30:                                               ; preds = %2
  %31 = load ptr, ptr %3, align 8
  %32 = getelementptr inbounds nuw %struct.WritebackContext, ptr %31, i32 0, i32 2
  %33 = getelementptr inbounds [256 x %struct.PendingWriteback], ptr %32, i64 0, i64 0
  %34 = load ptr, ptr %3, align 8
  %35 = getelementptr inbounds nuw %struct.WritebackContext, ptr %34, i32 0, i32 1
  %36 = load i32, ptr %35, align 8
  %37 = sext i32 %36 to i64
  call void @sort_pending_writebacks(ptr noundef %33, i64 noundef %37)
  call void @llvm.lifetime.start.p0(i64 8, ptr %8) #10
  %38 = load i8, ptr @track_io_timing, align 1, !range !4, !noundef !5
  %39 = trunc i8 %38 to i1
  %40 = call i64 @pgstat_prepare_io_time(i1 noundef zeroext %39)
  %41 = getelementptr inbounds nuw %struct.instr_time, ptr %8, i32 0, i32 0
  store i64 %40, ptr %41, align 8
  call void @llvm.memcpy.p0.p0.i64(ptr align 8 %5, ptr align 8 %8, i64 8, i1 false)
  call void @llvm.lifetime.end.p0(i64 8, ptr %8) #10
  store i32 0, ptr %6, align 4
  br label %42

42:                                               ; preds = %155, %30
  %43 = load i32, ptr %6, align 4
  %44 = load ptr, ptr %3, align 8
  %45 = getelementptr inbounds nuw %struct.WritebackContext, ptr %44, i32 0, i32 1
  %46 = load i32, ptr %45, align 8
  %47 = icmp slt i32 %43, %46
  br i1 %47, label %48, label %158

48:                                               ; preds = %42
  call void @llvm.lifetime.start.p0(i64 8, ptr %9) #10
  call void @llvm.lifetime.start.p0(i64 8, ptr %10) #10
  call void @llvm.lifetime.start.p0(i64 8, ptr %11) #10
  call void @llvm.lifetime.start.p0(i64 4, ptr %12) #10
  call void @llvm.lifetime.start.p0(i64 20, ptr %13) #10
  call void @llvm.lifetime.start.p0(i64 12, ptr %14) #10
  call void @llvm.lifetime.start.p0(i64 8, ptr %15) #10
  store i64 1, ptr %15, align 8
  %49 = load ptr, ptr %3, align 8
  %50 = getelementptr inbounds nuw %struct.WritebackContext, ptr %49, i32 0, i32 2
  %51 = load i32, ptr %6, align 4
  %52 = sext i32 %51 to i64
  %53 = getelementptr inbounds [256 x %struct.PendingWriteback], ptr %50, i64 0, i64 %52
  store ptr %53, ptr %9, align 8
  %54 = load ptr, ptr %9, align 8
  %55 = getelementptr inbounds nuw %struct.PendingWriteback, ptr %54, i32 0, i32 0
  call void @llvm.memcpy.p0.p0.i64(ptr align 4 %13, ptr align 4 %55, i64 20, i1 false)
  call void @llvm.lifetime.start.p0(i64 12, ptr %16) #10
  %56 = call { i64, i32 } @BufTagGetRelFileLocator(ptr noundef %13)
  store { i64, i32 } %56, ptr %17, align 8
  call void @llvm.memcpy.p0.p0.i64(ptr align 4 %16, ptr align 8 %17, i64 12, i1 false)
  call void @llvm.memcpy.p0.p0.i64(ptr align 4 %14, ptr align 4 %16, i64 12, i1 false)
  call void @llvm.lifetime.end.p0(i64 12, ptr %16) #10
  store i32 0, ptr %12, align 4
  br label %57

57:                                               ; preds = %137, %48
  %58 = load i32, ptr %6, align 4
  %59 = load i32, ptr %12, align 4
  %60 = add i32 %58, %59
  %61 = add i32 %60, 1
  %62 = load ptr, ptr %3, align 8
  %63 = getelementptr inbounds nuw %struct.WritebackContext, ptr %62, i32 0, i32 1
  %64 = load i32, ptr %63, align 8
  %65 = icmp slt i32 %61, %64
  br i1 %65, label %66, label %140

66:                                               ; preds = %57
  %67 = load ptr, ptr %3, align 8
  %68 = getelementptr inbounds nuw %struct.WritebackContext, ptr %67, i32 0, i32 2
  %69 = load i32, ptr %6, align 4
  %70 = load i32, ptr %12, align 4
  %71 = add i32 %69, %70
  %72 = add i32 %71, 1
  %73 = sext i32 %72 to i64
  %74 = getelementptr inbounds [256 x %struct.PendingWriteback], ptr %68, i64 0, i64 %73
  store ptr %74, ptr %10, align 8
  %75 = getelementptr inbounds nuw %struct.RelFileLocator, ptr %14, i32 0, i32 2
  %76 = load i32, ptr %75, align 4
  %77 = load ptr, ptr %10, align 8
  %78 = getelementptr inbounds nuw %struct.PendingWriteback, ptr %77, i32 0, i32 0
  %79 = call { i64, i32 } @BufTagGetRelFileLocator(ptr noundef %78)
  store { i64, i32 } %79, ptr %19, align 8
  call void @llvm.memcpy.p0.p0.i64(ptr align 4 %18, ptr align 8 %19, i64 12, i1 false)
  %80 = getelementptr inbounds nuw %struct.RelFileLocator, ptr %18, i32 0, i32 2
  %81 = load i32, ptr %80, align 4
  %82 = icmp eq i32 %76, %81
  br i1 %82, label %83, label %109

83:                                               ; preds = %66
  %84 = getelementptr inbounds nuw %struct.RelFileLocator, ptr %14, i32 0, i32 1
  %85 = load i32, ptr %84, align 4
  %86 = load ptr, ptr %10, align 8
  %87 = getelementptr inbounds nuw %struct.PendingWriteback, ptr %86, i32 0, i32 0
  %88 = call { i64, i32 } @BufTagGetRelFileLocator(ptr noundef %87)
  store { i64, i32 } %88, ptr %21, align 8
  call void @llvm.memcpy.p0.p0.i64(ptr align 4 %20, ptr align 8 %21, i64 12, i1 false)
  %89 = getelementptr inbounds nuw %struct.RelFileLocator, ptr %20, i32 0, i32 1
  %90 = load i32, ptr %89, align 4
  %91 = icmp eq i32 %85, %90
  br i1 %91, label %92, label %109

92:                                               ; preds = %83
  %93 = getelementptr inbounds nuw %struct.RelFileLocator, ptr %14, i32 0, i32 0
  %94 = load i32, ptr %93, align 4
  %95 = load ptr, ptr %10, align 8
  %96 = getelementptr inbounds nuw %struct.PendingWriteback, ptr %95, i32 0, i32 0
  %97 = call { i64, i32 } @BufTagGetRelFileLocator(ptr noundef %96)
  store { i64, i32 } %97, ptr %23, align 8
  call void @llvm.memcpy.p0.p0.i64(ptr align 4 %22, ptr align 8 %23, i64 12, i1 false)
  %98 = getelementptr inbounds nuw %struct.RelFileLocator, ptr %22, i32 0, i32 0
  %99 = load i32, ptr %98, align 4
  %100 = icmp eq i32 %94, %99
  br i1 %100, label %101, label %109

101:                                              ; preds = %92
  %102 = load ptr, ptr %9, align 8
  %103 = getelementptr inbounds nuw %struct.PendingWriteback, ptr %102, i32 0, i32 0
  %104 = call i32 @BufTagGetForkNum(ptr noundef %103)
  %105 = load ptr, ptr %10, align 8
  %106 = getelementptr inbounds nuw %struct.PendingWriteback, ptr %105, i32 0, i32 0
  %107 = call i32 @BufTagGetForkNum(ptr noundef %106)
  %108 = icmp ne i32 %104, %107
  br i1 %108, label %109, label %110

109:                                              ; preds = %101, %92, %83, %66
  br label %140

110:                                              ; preds = %101
  %111 = load ptr, ptr %9, align 8
  %112 = getelementptr inbounds nuw %struct.PendingWriteback, ptr %111, i32 0, i32 0
  %113 = getelementptr inbounds nuw %struct.buftag, ptr %112, i32 0, i32 4
  %114 = load i32, ptr %113, align 4
  %115 = load ptr, ptr %10, align 8
  %116 = getelementptr inbounds nuw %struct.PendingWriteback, ptr %115, i32 0, i32 0
  %117 = getelementptr inbounds nuw %struct.buftag, ptr %116, i32 0, i32 4
  %118 = load i32, ptr %117, align 4
  %119 = icmp eq i32 %114, %118
  br i1 %119, label %120, label %121

120:                                              ; preds = %110
  br label %137

121:                                              ; preds = %110
  %122 = load ptr, ptr %9, align 8
  %123 = getelementptr inbounds nuw %struct.PendingWriteback, ptr %122, i32 0, i32 0
  %124 = getelementptr inbounds nuw %struct.buftag, ptr %123, i32 0, i32 4
  %125 = load i32, ptr %124, align 4
  %126 = add i32 %125, 1
  %127 = load ptr, ptr %10, align 8
  %128 = getelementptr inbounds nuw %struct.PendingWriteback, ptr %127, i32 0, i32 0
  %129 = getelementptr inbounds nuw %struct.buftag, ptr %128, i32 0, i32 4
  %130 = load i32, ptr %129, align 4
  %131 = icmp ne i32 %126, %130
  br i1 %131, label %132, label %133

132:                                              ; preds = %121
  br label %140

133:                                              ; preds = %121
  %134 = load i64, ptr %15, align 8
  %135 = add i64 %134, 1
  store i64 %135, ptr %15, align 8
  %136 = load ptr, ptr %10, align 8
  store ptr %136, ptr %9, align 8
  br label %137

137:                                              ; preds = %133, %120
  %138 = load i32, ptr %12, align 4
  %139 = add i32 %138, 1
  store i32 %139, ptr %12, align 4
  br label %57, !llvm.loop !46

140:                                              ; preds = %132, %109, %57
  %141 = load i32, ptr %12, align 4
  %142 = load i32, ptr %6, align 4
  %143 = add i32 %142, %141
  store i32 %143, ptr %6, align 4
  call void @llvm.memcpy.p0.p0.i64(ptr align 4 %24, ptr align 4 %14, i64 12, i1 false)
  %144 = getelementptr inbounds nuw { i64, i32 }, ptr %24, i32 0, i32 0
  %145 = load i64, ptr %144, align 4
  %146 = getelementptr inbounds nuw { i64, i32 }, ptr %24, i32 0, i32 1
  %147 = load i32, ptr %146, align 4
  %148 = call ptr @smgropen(i64 %145, i32 %147, i32 noundef -1)
  store ptr %148, ptr %11, align 8
  %149 = load ptr, ptr %11, align 8
  %150 = call i32 @BufTagGetForkNum(ptr noundef %13)
  %151 = getelementptr inbounds nuw %struct.buftag, ptr %13, i32 0, i32 4
  %152 = load i32, ptr %151, align 4
  %153 = load i64, ptr %15, align 8
  %154 = trunc i64 %153 to i32
  call void @smgrwriteback(ptr noundef %149, i32 noundef %150, i32 noundef %152, i32 noundef %154)
  call void @llvm.lifetime.end.p0(i64 8, ptr %15) #10
  call void @llvm.lifetime.end.p0(i64 12, ptr %14) #10
  call void @llvm.lifetime.end.p0(i64 20, ptr %13) #10
  call void @llvm.lifetime.end.p0(i64 4, ptr %12) #10
  call void @llvm.lifetime.end.p0(i64 8, ptr %11) #10
  call void @llvm.lifetime.end.p0(i64 8, ptr %10) #10
  call void @llvm.lifetime.end.p0(i64 8, ptr %9) #10
  br label %155

155:                                              ; preds = %140
  %156 = load i32, ptr %6, align 4
  %157 = add i32 %156, 1
  store i32 %157, ptr %6, align 4
  br label %42, !llvm.loop !47

158:                                              ; preds = %42
  %159 = load i32, ptr %4, align 4
  %160 = load ptr, ptr %3, align 8
  %161 = getelementptr inbounds nuw %struct.WritebackContext, ptr %160, i32 0, i32 1
  %162 = load i32, ptr %161, align 8
  %163 = getelementptr inbounds nuw %struct.instr_time, ptr %5, i32 0, i32 0
  %164 = load i64, ptr %163, align 8
  call void @pgstat_count_io_op_time(i32 noundef 0, i32 noundef %159, i32 noundef 4, i64 %164, i32 noundef %162, i64 noundef 0)
  %165 = load ptr, ptr %3, align 8
  %166 = getelementptr inbounds nuw %struct.WritebackContext, ptr %165, i32 0, i32 1
  store i32 0, ptr %166, align 8
  store i32 0, ptr %7, align 4
  br label %167

167:                                              ; preds = %158, %29
  call void @llvm.lifetime.end.p0(i64 4, ptr %6) #10
  call void @llvm.lifetime.end.p0(i64 8, ptr %5) #10
  %168 = load i32, ptr %7, align 4
  switch i32 %168, label %170 [
    i32 0, label %169
    i32 1, label %169
  ]

169:                                              ; preds = %167, %167
  ret void

170:                                              ; preds = %167
  unreachable
}