; Function Attrs: nounwind uwtable
define dso_local void @IssuePendingWritebacks(ptr noundef %0, i32 noundef %1) local_unnamed_addr #0 {
  %3 = getelementptr inbounds nuw i8, ptr %0, i64 8
  %4 = load i32, ptr %3, align 8
  %5 = icmp eq i32 %4, 0
  br i1 %5, label %47, label %6

6:                                                ; preds = %2
  %7 = getelementptr inbounds nuw i8, ptr %0, i64 12
  %8 = sext i32 %4 to i64
  tail call fastcc void @sort_pending_writebacks(ptr noundef nonnull %7, i64 noundef %8)
  %9 = load i8, ptr @track_io_timing, align 1, !range !5, !noundef !6
  %10 = trunc nuw i8 %9 to i1
  %11 = tail call i64 @pgstat_prepare_io_time(i1 noundef zeroext %10) #16
  %12 = load i32, ptr %3, align 8
  %13 = icmp sgt i32 %12, 0
  br i1 %13, label %.lr.ph96, label %._crit_edge97

.lr.ph96:                                         ; preds = %6, %._crit_edge
  %14 = phi i32 [ %45, %._crit_edge ], [ %12, %6 ]
  %.094 = phi i32 [ %.lcssa, %._crit_edge ], [ 0, %6 ]
  %15 = sext i32 %.094 to i64
  %16 = getelementptr inbounds [256 x %struct.PendingWriteback], ptr %7, i64 0, i64 %15
  %.sroa.0.0.copyload = load i64, ptr %16, align 4
  %.sroa.4.0..sroa_idx = getelementptr inbounds nuw i8, ptr %16, i64 8
  %.sroa.4.0.copyload = load i32, ptr %.sroa.4.0..sroa_idx, align 4
  %.sroa.5.0..sroa_idx = getelementptr inbounds nuw i8, ptr %16, i64 12
  %.sroa.5.0.copyload = load i32, ptr %.sroa.5.0..sroa_idx, align 4
  %.sroa.6.0..sroa_idx = getelementptr inbounds nuw i8, ptr %16, i64 16
  %.sroa.6.0.copyload = load i32, ptr %.sroa.6.0..sroa_idx, align 4
  %17 = add nsw i32 %.094, 1
  %18 = icmp slt i32 %17, %14
  br i1 %18, label %.lr.ph, label %._crit_edge

.lr.ph:                                           ; preds = %.lr.ph96
  %invariant.op = add nsw i32 %.094, 2
  %19 = xor i32 %.094, -1
  %20 = add i32 %14, %19
  br label %21

21:                                               ; preds = %.lr.ph, %42
  %22 = phi i32 [ %17, %.lr.ph ], [ %.reass, %42 ]
  %.05983 = phi ptr [ %16, %.lr.ph ], [ %.1, %42 ]
  %.06082 = phi i32 [ 0, %.lr.ph ], [ %43, %42 ]
  %.06181 = phi i32 [ 1, %.lr.ph ], [ %.162, %42 ]
  %23 = sext i32 %22 to i64
  %24 = getelementptr inbounds [256 x %struct.PendingWriteback], ptr %7, i64 0, i64 %23
  %25 = load i64, ptr %24, align 4
  %26 = getelementptr i8, ptr %24, i64 8
  %.val.i70 = load i32, ptr %26, align 4
  %27 = icmp eq i32 %.sroa.4.0.copyload, %.val.i70
  %28 = icmp eq i64 %.sroa.0.0.copyload, %25
  %or.cond79 = select i1 %27, i1 %28, i1 false
  br i1 %or.cond79, label %29, label %._crit_edge

29:                                               ; preds = %21
  %30 = getelementptr i8, ptr %.05983, i64 12
  %.059.val = load i32, ptr %30, align 4
  %31 = getelementptr i8, ptr %24, i64 12
  %.val69 = load i32, ptr %31, align 4
  %.not = icmp eq i32 %.059.val, %.val69
  br i1 %.not, label %32, label %._crit_edge

32:                                               ; preds = %29
  %33 = getelementptr inbounds nuw i8, ptr %.05983, i64 16
  %34 = load i32, ptr %33, align 4
  %35 = getelementptr inbounds nuw i8, ptr %24, i64 16
  %36 = load i32, ptr %35, align 4
  %37 = icmp eq i32 %34, %36
  br i1 %37, label %42, label %38

38:                                               ; preds = %32
  %39 = add i32 %34, 1
  %.not68 = icmp eq i32 %39, %36
  br i1 %.not68, label %40, label %._crit_edge

40:                                               ; preds = %38
  %41 = add i32 %.06181, 1
  br label %42

42:                                               ; preds = %32, %40
  %.162 = phi i32 [ %.06181, %32 ], [ %41, %40 ]
  %.1 = phi ptr [ %.05983, %32 ], [ %24, %40 ]
  %43 = add i32 %.06082, 1
  %.reass = add i32 %.06082, %invariant.op
  %exitcond.not = icmp eq i32 %43, %20
  br i1 %exitcond.not, label %._crit_edge, label %21, !llvm.loop !54

._crit_edge:                                      ; preds = %42, %29, %21, %38, %.lr.ph96
  %.061.lcssa = phi i32 [ 1, %.lr.ph96 ], [ %.06181, %38 ], [ %.06181, %21 ], [ %.06181, %29 ], [ %.162, %42 ]
  %.lcssa = phi i32 [ %17, %.lr.ph96 ], [ %22, %38 ], [ %22, %21 ], [ %22, %29 ], [ %14, %42 ]
  %44 = tail call ptr @smgropen(i64 %.sroa.0.0.copyload, i32 %.sroa.4.0.copyload, i32 noundef -1) #16
  tail call void @smgrwriteback(ptr noundef %44, i32 noundef %.sroa.5.0.copyload, i32 noundef %.sroa.6.0.copyload, i32 noundef %.061.lcssa) #16
  %45 = load i32, ptr %3, align 8
  %46 = icmp slt i32 %.lcssa, %45
  br i1 %46, label %.lr.ph96, label %._crit_edge97, !llvm.loop !55

._crit_edge97:                                    ; preds = %._crit_edge, %6
  %.lcssa80 = phi i32 [ %12, %6 ], [ %45, %._crit_edge ]
  tail call void @pgstat_count_io_op_time(i32 noundef 0, i32 noundef %1, i32 noundef 4, i64 %11, i32 noundef %.lcssa80, i64 noundef 0) #16
  store i32 0, ptr %3, align 8
  br label %47

47:                                               ; preds = %2, %._crit_edge97
  ret void
}